((lp0
(dp1
S'javac_switches'
p2
(dp3
S'd'
p4
S'/home/opprop/units-inference/benchmarks/paper-annotation/exp4j/target/classes'
p5
sS'g'
p6
I01
sS'encoding'
p7
S'UTF-8'
p8
sS'sourcepath'
p9
S'/home/opprop/units-inference/benchmarks/paper-annotation/exp4j/src/main/java:'
p10
sS'classpath'
p11
S'/home/opprop/units-inference/benchmarks/paper-annotation/exp4j/target/classes:'
p12
sS'source'
p13
S'1.6'
p14
sS's'
p15
S'/home/opprop/units-inference/benchmarks/paper-annotation/exp4j/target/generated-sources/annotations'
p16
sS'nowarn'
p17
I01
sS'target'
p18
S'1.6'
p19
ssS'java_files'
p20
(lp21
S'/home/opprop/units-inference/benchmarks/paper-annotation/exp4j/src/main/java/net/objecthunter/exp4j/tokenizer/OperatorToken.java'
p22
aS'/home/opprop/units-inference/benchmarks/paper-annotation/exp4j/src/main/java/net/objecthunter/exp4j/Expression.java'
p23
aS'/home/opprop/units-inference/benchmarks/paper-annotation/exp4j/src/main/java/net/objecthunter/exp4j/function/Functions.java'
p24
aS'/home/opprop/units-inference/benchmarks/paper-annotation/exp4j/src/main/java/net/objecthunter/exp4j/operator/Operators.java'
p25
aS'/home/opprop/units-inference/benchmarks/paper-annotation/exp4j/src/main/java/net/objecthunter/exp4j/function/Function.java'
p26
aS'/home/opprop/units-inference/benchmarks/paper-annotation/exp4j/src/main/java/net/objecthunter/exp4j/tokenizer/Token.java'
p27
aS'/home/opprop/units-inference/benchmarks/paper-annotation/exp4j/src/main/java/net/objecthunter/exp4j/shuntingyard/ShuntingYard.java'
p28
aS'/home/opprop/units-inference/benchmarks/paper-annotation/exp4j/src/main/java/net/objecthunter/exp4j/operator/Operator.java'
p29
aS'/home/opprop/units-inference/benchmarks/paper-annotation/exp4j/src/main/java/net/objecthunter/exp4j/ExpressionBuilder.java'
p30
aS'/home/opprop/units-inference/benchmarks/paper-annotation/exp4j/src/main/java/net/objecthunter/exp4j/tokenizer/CloseParenthesesToken.java'
p31
aS'/home/opprop/units-inference/benchmarks/paper-annotation/exp4j/src/main/java/net/objecthunter/exp4j/tokenizer/Tokenizer.java'
p32
aS'/home/opprop/units-inference/benchmarks/paper-annotation/exp4j/src/main/java/net/objecthunter/exp4j/tokenizer/UnknownFunctionOrVariableException.java'
p33
aS'/home/opprop/units-inference/benchmarks/paper-annotation/exp4j/src/main/java/net/objecthunter/exp4j/tokenizer/NumberToken.java'
p34
aS'/home/opprop/units-inference/benchmarks/paper-annotation/exp4j/src/main/java/net/objecthunter/exp4j/ArrayStack.java'
p35
aS'/home/opprop/units-inference/benchmarks/paper-annotation/exp4j/src/main/java/net/objecthunter/exp4j/tokenizer/VariableToken.java'
p36
aS'/home/opprop/units-inference/benchmarks/paper-annotation/exp4j/src/main/java/net/objecthunter/exp4j/tokenizer/OpenParenthesesToken.java'
p37
aS'/home/opprop/units-inference/benchmarks/paper-annotation/exp4j/src/main/java/net/objecthunter/exp4j/tokenizer/FunctionToken.java'
p38
aS'/home/opprop/units-inference/benchmarks/paper-annotation/exp4j/src/main/java/net/objecthunter/exp4j/tokenizer/ArgumentSeparatorToken.java'
p39
aS'/home/opprop/units-inference/benchmarks/paper-annotation/exp4j/src/main/java/net/objecthunter/exp4j/ValidationResult.java'
p40
asa(lp41
(dp42
S'built_jars'
p43
I0
sS'executable_jars'
p44
I0
sS'javac_invocations'
p45
I1
sS'build_time'
p46
F8.317873001098633
sS'source_files'
p47
I19
sS'class_files'
p48
I51
stp49
.